; Function Attrs: mustprogress uwtable
define hidden void @_ZN4cvc58internal3smt24PreprocessProofGenerator22notifyNewTrustedAssertENS0_9TrustNodeENS0_7TrustIdE(ptr noundef nonnull align 8 dereferenceable(792) %0, ptr noundef nonnull %1, i32 noundef %2) local_unnamed_addr #3 align 2 personality ptr @__gxx_personality_v0 {
  %4 = alloca %"class.cvc5::internal::NodeTemplate", align 8
  call void @_ZNK4cvc58internal9TrustNode9getProvenEv(ptr dead_on_unwind nonnull writable sret(%"class.cvc5::internal::NodeTemplate") align 8 %4, ptr noundef nonnull align 8 dereferenceable(24) %1)
  %5 = invoke noundef ptr @_ZNK4cvc58internal9TrustNode12getGeneratorEv(ptr noundef nonnull align 8 dereferenceable(24) %1)
          to label %6 unwind label %21

6:                                                ; preds = %3
  invoke void @_ZN4cvc58internal3smt24PreprocessProofGenerator15notifyNewAssertENS0_12NodeTemplateILb1EEEPNS0_14ProofGeneratorENS0_7TrustIdE(ptr noundef nonnull align 8 dereferenceable(792) %0, ptr noundef nonnull %4, ptr noundef %5, i32 noundef %2)
          to label %7 unwind label %21

7:                                                ; preds = %6
  %8 = load ptr, ptr %4, align 8, !tbaa !64
  %9 = load i64, ptr %8, align 8
  %10 = and i64 %9, 1152920405095219200
  %.not.i.i = icmp eq i64 %10, 1152920405095219200
  br i1 %.not.i.i, label %_ZN4cvc58internal12NodeTemplateILb1EED2Ev.exit, label %11, !prof !68

11:                                               ; preds = %7
  %12 = add i64 %9, 1152920405095219200
  %13 = and i64 %12, 1152920405095219200
  %14 = and i64 %9, -1152920405095219201
  %15 = or disjoint i64 %13, %14
  store i64 %15, ptr %8, align 8
  %16 = icmp eq i64 %13, 0
  br i1 %16, label %17, label %_ZN4cvc58internal12NodeTemplateILb1EED2Ev.exit, !prof !68

17:                                               ; preds = %11
  invoke void @_ZN4cvc58internal4expr9NodeValue15markForDeletionEv(ptr noundef nonnull align 8 dereferenceable(24) %8)
          to label %_ZN4cvc58internal12NodeTemplateILb1EED2Ev.exit unwind label %18

18:                                               ; preds = %17
  %19 = landingpad { ptr, i32 }
          catch ptr null
  %20 = extractvalue { ptr, i32 } %19, 0
  call void @__clang_call_terminate(ptr %20) #26
  unreachable

_ZN4cvc58internal12NodeTemplateILb1EED2Ev.exit:   ; preds = %7, %11, %17
  ret void

21:                                               ; preds = %6, %3
  %22 = landingpad { ptr, i32 }
          cleanup
  call void @_ZN4cvc58internal12NodeTemplateILb1EED2Ev(ptr noundef nonnull align 8 dereferenceable(8) %4) #24
  resume { ptr, i32 } %22
}